(lp1
(lp2
I30
aI8
aI18
aI8
aa(lp3
I37
aI15
aI16
aI3
aa(lp4
I32
aI5
aI18
aI6
aa(lp5
I108
aI51
aI50
aI18
aa(lp6
I38
aI13
aI17
aI5
aa(lp7
I17
aI5
aI5
aI1
aa(lp8
I78
aI29
aI32
aI9
aa(lp9
I272
aI135
aI90
aI30
aa(lp10
I63
aI31
aI17
aI5
aa.