(lp1
(lp2
I23
aI12
aI11
aI6
aa(lp3
I104
aI40
aI39
aI4
aa(lp4
I179
aI62
aI54
aI10
aa(lp5
I252
aI92
aI90
aI21
aa(lp6
I98
aI40
aI28
aI5
aa(lp7
I124
aI66
aI49
aI16
aa(lp8
I20
aI5
aI6
aI1
aa(lp9
I401
aI203
aI169
aI59
aa(lp10
I62
aI20
aI21
aI1
aa.