(lp1
(lp2
I200
aI96
aI72
aI35
aa(lp3
I47
aI21
aI11
aI1
aa(lp4
I31
aI9
aI13
aI3
aa(lp5
I120
aI53
aI49
aI11
aa(lp6
I130
aI51
aI46
aI7
aa(lp7
I132
aI67
aI35
aI8
aa(lp8
I96
aI43
aI27
aI16
aa(lp9
I60
aI35
aI15
aI5
aa(lp10
I117
aI60
aI37
aI10
aa.